target datalayout = "e-m:e-p270:32:32-p271:32:32-p272:64:64-i64:64-i128:128-f80:128-n8:16:32:64-S128"
target triple = "x86_64-pc-linux-gnu"

%struct._someip_parameter_array_uat = type { i32, ptr, i32, i32, i32, ptr, i32, i32, i32, i32, i32 }

; Function Attrs: null_pointer_is_valid sspstrong uwtable
define internal ptr @copy_someip_parameter_array_cb(ptr noundef %0, ptr noundef %1, i64 noundef %2) #0 {
  %4 = alloca ptr, align 8
  %5 = alloca ptr, align 8
  %6 = alloca i64, align 8
  %7 = alloca ptr, align 8
  %8 = alloca ptr, align 8
  store ptr %0, ptr %4, align 8
  store ptr %1, ptr %5, align 8
  store i64 %2, ptr %6, align 8
  call void @llvm.lifetime.start.p0(i64 8, ptr %7) #19
  %9 = load ptr, ptr %4, align 8
  store ptr %9, ptr %7, align 8
  call void @llvm.lifetime.start.p0(i64 8, ptr %8) #19
  %10 = load ptr, ptr %5, align 8
  store ptr %10, ptr %8, align 8
  %11 = load ptr, ptr %8, align 8
  %12 = getelementptr inbounds nuw %struct._someip_parameter_array_uat, ptr %11, i32 0, i32 0
  %13 = load i32, ptr %12, align 8
  %14 = load ptr, ptr %7, align 8
  %15 = getelementptr inbounds nuw %struct._someip_parameter_array_uat, ptr %14, i32 0, i32 0
  store i32 %13, ptr %15, align 8
  %16 = load ptr, ptr %8, align 8
  %17 = getelementptr inbounds nuw %struct._someip_parameter_array_uat, ptr %16, i32 0, i32 1
  %18 = load ptr, ptr %17, align 8
  %19 = icmp ne ptr %18, null
  br i1 %19, label %20, label %27

20:                                               ; preds = %3
  %21 = load ptr, ptr %8, align 8
  %22 = getelementptr inbounds nuw %struct._someip_parameter_array_uat, ptr %21, i32 0, i32 1
  %23 = load ptr, ptr %22, align 8
  %24 = call noalias ptr @g_strdup(ptr noundef %23)
  %25 = load ptr, ptr %7, align 8
  %26 = getelementptr inbounds nuw %struct._someip_parameter_array_uat, ptr %25, i32 0, i32 1
  store ptr %24, ptr %26, align 8
  br label %30

27:                                               ; preds = %3
  %28 = load ptr, ptr %7, align 8
  %29 = getelementptr inbounds nuw %struct._someip_parameter_array_uat, ptr %28, i32 0, i32 1
  store ptr null, ptr %29, align 8
  br label %30

30:                                               ; preds = %27, %20
  %31 = load ptr, ptr %8, align 8
  %32 = getelementptr inbounds nuw %struct._someip_parameter_array_uat, ptr %31, i32 0, i32 2
  %33 = load i32, ptr %32, align 8
  %34 = load ptr, ptr %7, align 8
  %35 = getelementptr inbounds nuw %struct._someip_parameter_array_uat, ptr %34, i32 0, i32 2
  store i32 %33, ptr %35, align 8
  %36 = load ptr, ptr %8, align 8
  %37 = getelementptr inbounds nuw %struct._someip_parameter_array_uat, ptr %36, i32 0, i32 3
  %38 = load i32, ptr %37, align 4
  %39 = load ptr, ptr %7, align 8
  %40 = getelementptr inbounds nuw %struct._someip_parameter_array_uat, ptr %39, i32 0, i32 3
  store i32 %38, ptr %40, align 4
  %41 = load ptr, ptr %8, align 8
  %42 = getelementptr inbounds nuw %struct._someip_parameter_array_uat, ptr %41, i32 0, i32 4
  %43 = load i32, ptr %42, align 8
  %44 = load ptr, ptr %7, align 8
  %45 = getelementptr inbounds nuw %struct._someip_parameter_array_uat, ptr %44, i32 0, i32 4
  store i32 %43, ptr %45, align 8
  %46 = load ptr, ptr %8, align 8
  %47 = getelementptr inbounds nuw %struct._someip_parameter_array_uat, ptr %46, i32 0, i32 5
  %48 = load ptr, ptr %47, align 8
  %49 = icmp ne ptr %48, null
  br i1 %49, label %50, label %57

50:                                               ; preds = %30
  %51 = load ptr, ptr %8, align 8
  %52 = getelementptr inbounds nuw %struct._someip_parameter_array_uat, ptr %51, i32 0, i32 5
  %53 = load ptr, ptr %52, align 8
  %54 = call noalias ptr @g_strdup(ptr noundef %53)
  %55 = load ptr, ptr %7, align 8
  %56 = getelementptr inbounds nuw %struct._someip_parameter_array_uat, ptr %55, i32 0, i32 5
  store ptr %54, ptr %56, align 8
  br label %60

57:                                               ; preds = %30
  %58 = load ptr, ptr %7, align 8
  %59 = getelementptr inbounds nuw %struct._someip_parameter_array_uat, ptr %58, i32 0, i32 5
  store ptr null, ptr %59, align 8
  br label %60

60:                                               ; preds = %57, %50
  %61 = load ptr, ptr %8, align 8
  %62 = getelementptr inbounds nuw %struct._someip_parameter_array_uat, ptr %61, i32 0, i32 6
  %63 = load i32, ptr %62, align 8
  %64 = load ptr, ptr %7, align 8
  %65 = getelementptr inbounds nuw %struct._someip_parameter_array_uat, ptr %64, i32 0, i32 6
  store i32 %63, ptr %65, align 8
  %66 = load ptr, ptr %8, align 8
  %67 = getelementptr inbounds nuw %struct._someip_parameter_array_uat, ptr %66, i32 0, i32 7
  %68 = load i32, ptr %67, align 4
  %69 = load ptr, ptr %7, align 8
  %70 = getelementptr inbounds nuw %struct._someip_parameter_array_uat, ptr %69, i32 0, i32 7
  store i32 %68, ptr %70, align 4
  %71 = load ptr, ptr %8, align 8
  %72 = getelementptr inbounds nuw %struct._someip_parameter_array_uat, ptr %71, i32 0, i32 8
  %73 = load i32, ptr %72, align 8
  %74 = load ptr, ptr %7, align 8
  %75 = getelementptr inbounds nuw %struct._someip_parameter_array_uat, ptr %74, i32 0, i32 8
  store i32 %73, ptr %75, align 8
  %76 = load ptr, ptr %8, align 8
  %77 = getelementptr inbounds nuw %struct._someip_parameter_array_uat, ptr %76, i32 0, i32 9
  %78 = load i32, ptr %77, align 4
  %79 = load ptr, ptr %7, align 8
  %80 = getelementptr inbounds nuw %struct._someip_parameter_array_uat, ptr %79, i32 0, i32 9
  store i32 %78, ptr %80, align 4
  %81 = load ptr, ptr %8, align 8
  %82 = getelementptr inbounds nuw %struct._someip_parameter_array_uat, ptr %81, i32 0, i32 10
  %83 = load i32, ptr %82, align 8
  %84 = load ptr, ptr %7, align 8
  %85 = getelementptr inbounds nuw %struct._someip_parameter_array_uat, ptr %84, i32 0, i32 10
  store i32 %83, ptr %85, align 8
  %86 = load ptr, ptr %7, align 8
  call void @llvm.lifetime.end.p0(i64 8, ptr %8) #19
  call void @llvm.lifetime.end.p0(i64 8, ptr %7) #19
  ret ptr %86
}