; Function Attrs: null_pointer_is_valid sspstrong uwtable
define internal noundef ptr @copy_someip_parameter_array_cb(ptr noundef returned writeonly captures(ret: address, provenance) initializes((0, 4), (8, 28), (32, 60)) %0, ptr noundef readonly captures(none) %1, i64 %2) #0 {
  %4 = load i32, ptr %1, align 8
  store i32 %4, ptr %0, align 8
  %5 = getelementptr inbounds nuw i8, ptr %1, i64 8
  %6 = load ptr, ptr %5, align 8
  %.not = icmp eq ptr %6, null
  br i1 %.not, label %9, label %7

7:                                                ; preds = %3
  %8 = tail call noalias ptr @g_strdup(ptr noundef nonnull %6)
  br label %9

9:                                                ; preds = %3, %7
  %.sink = phi ptr [ %8, %7 ], [ null, %3 ]
  %10 = getelementptr inbounds nuw i8, ptr %0, i64 8
  store ptr %.sink, ptr %10, align 8
  %11 = getelementptr inbounds nuw i8, ptr %1, i64 16
  %12 = load i32, ptr %11, align 8
  %13 = getelementptr inbounds nuw i8, ptr %0, i64 16
  store i32 %12, ptr %13, align 8
  %14 = getelementptr inbounds nuw i8, ptr %1, i64 20
  %15 = load i32, ptr %14, align 4
  %16 = getelementptr inbounds nuw i8, ptr %0, i64 20
  store i32 %15, ptr %16, align 4
  %17 = getelementptr inbounds nuw i8, ptr %1, i64 24
  %18 = load i32, ptr %17, align 8
  %19 = getelementptr inbounds nuw i8, ptr %0, i64 24
  store i32 %18, ptr %19, align 8
  %20 = getelementptr inbounds nuw i8, ptr %1, i64 32
  %21 = load ptr, ptr %20, align 8
  %.not30 = icmp eq ptr %21, null
  br i1 %.not30, label %24, label %22

22:                                               ; preds = %9
  %23 = tail call noalias ptr @g_strdup(ptr noundef nonnull %21)
  br label %24

24:                                               ; preds = %9, %22
  %.sink31 = phi ptr [ %23, %22 ], [ null, %9 ]
  %25 = getelementptr inbounds nuw i8, ptr %0, i64 32
  store ptr %.sink31, ptr %25, align 8
  %26 = getelementptr inbounds nuw i8, ptr %1, i64 40
  %27 = load i32, ptr %26, align 8
  %28 = getelementptr inbounds nuw i8, ptr %0, i64 40
  store i32 %27, ptr %28, align 8
  %29 = getelementptr inbounds nuw i8, ptr %1, i64 44
  %30 = load i32, ptr %29, align 4
  %31 = getelementptr inbounds nuw i8, ptr %0, i64 44
  store i32 %30, ptr %31, align 4
  %32 = getelementptr inbounds nuw i8, ptr %1, i64 48
  %33 = load i32, ptr %32, align 8
  %34 = getelementptr inbounds nuw i8, ptr %0, i64 48
  store i32 %33, ptr %34, align 8
  %35 = getelementptr inbounds nuw i8, ptr %1, i64 52
  %36 = load i32, ptr %35, align 4
  %37 = getelementptr inbounds nuw i8, ptr %0, i64 52
  store i32 %36, ptr %37, align 4
  %38 = getelementptr inbounds nuw i8, ptr %1, i64 56
  %39 = load i32, ptr %38, align 8
  %40 = getelementptr inbounds nuw i8, ptr %0, i64 56
  store i32 %39, ptr %40, align 8
  ret ptr %0
}